target datalayout = "e-m:e-p270:32:32-p271:32:32-p272:64:64-i64:64-i128:128-f80:128-n8:16:32:64-S128"
target triple = "x86_64-pc-linux-gnu"

%struct.ReplicationSlotCtlData = type { [1 x %struct.ReplicationSlot] }
%struct.ReplicationSlot = type { i8, i8, i32, i8, i8, i32, i32, %struct.ReplicationSlotPersistentData, %struct.LWLock, %struct.ConditionVariable, i32, i64, i64, i64, i64, i64 }
%struct.ReplicationSlotPersistentData = type { %struct.nameData, i32, i32, i32, i32, i64, i32, i64, i64, i8, %struct.nameData, i8, i8 }
%struct.nameData = type { [64 x i8] }
%struct.LWLock = type { i16, %struct.pg_atomic_uint32, %struct.proclist_head }
%struct.pg_atomic_uint32 = type { i32 }
%struct.proclist_head = type { i32, i32 }
%struct.ConditionVariable = type { i8, %struct.proclist_head }
%union.LWLockPadded = type { %struct.LWLock, [112 x i8] }

@ReplicationSlotCtl = dso_local global ptr null, align 8
@MainLWLockArray = external global ptr, align 8

; Function Attrs: nounwind uwtable
define dso_local zeroext i1 @ReplicationSlotName(i32 noundef %0, ptr noundef %1) #0 {
  %3 = alloca i32, align 4
  %4 = alloca ptr, align 8
  %5 = alloca ptr, align 8
  %6 = alloca i8, align 1
  store i32 %0, ptr %3, align 4
  store ptr %1, ptr %4, align 8
  call void @llvm.lifetime.start.p0(i64 8, ptr %5) #12
  call void @llvm.lifetime.start.p0(i64 1, ptr %6) #12
  %7 = load ptr, ptr @ReplicationSlotCtl, align 8
  %8 = getelementptr inbounds nuw %struct.ReplicationSlotCtlData, ptr %7, i32 0, i32 0
  %9 = load i32, ptr %3, align 4
  %10 = sext i32 %9 to i64
  %11 = getelementptr inbounds [1 x %struct.ReplicationSlot], ptr %8, i64 0, i64 %10
  store ptr %11, ptr %5, align 8
  %12 = load ptr, ptr @MainLWLockArray, align 8
  %13 = getelementptr inbounds %union.LWLockPadded, ptr %12, i64 37
  %14 = call zeroext i1 @LWLockAcquire(ptr noundef %13, i32 noundef 1)
  %15 = load ptr, ptr %5, align 8
  %16 = getelementptr inbounds nuw %struct.ReplicationSlot, ptr %15, i32 0, i32 1
  %17 = load i8, ptr %16, align 1, !range !4, !noundef !5
  %18 = trunc i8 %17 to i1
  %19 = zext i1 %18 to i8
  store i8 %19, ptr %6, align 1
  %20 = load ptr, ptr %5, align 8
  %21 = getelementptr inbounds nuw %struct.ReplicationSlot, ptr %20, i32 0, i32 1
  %22 = load i8, ptr %21, align 1, !range !4, !noundef !5
  %23 = trunc i8 %22 to i1
  br i1 %23, label %24, label %31

24:                                               ; preds = %2
  %25 = load ptr, ptr %4, align 8
  %26 = load ptr, ptr %5, align 8
  %27 = getelementptr inbounds nuw %struct.ReplicationSlot, ptr %26, i32 0, i32 7
  %28 = getelementptr inbounds nuw %struct.ReplicationSlotPersistentData, ptr %27, i32 0, i32 0
  %29 = getelementptr inbounds nuw %struct.nameData, ptr %28, i32 0, i32 0
  %30 = getelementptr inbounds [64 x i8], ptr %29, i64 0, i64 0
  call void @namestrcpy(ptr noundef %25, ptr noundef %30)
  br label %31

31:                                               ; preds = %24, %2
  %32 = load ptr, ptr @MainLWLockArray, align 8
  %33 = getelementptr inbounds %union.LWLockPadded, ptr %32, i64 37
  call void @LWLockRelease(ptr noundef %33)
  %34 = load i8, ptr %6, align 1, !range !4, !noundef !5
  %35 = trunc i8 %34 to i1
  call void @llvm.lifetime.end.p0(i64 1, ptr %6) #12
  call void @llvm.lifetime.end.p0(i64 8, ptr %5) #12
  ret i1 %35
}