; Function Attrs: nounwind uwtable
define dso_local noundef zeroext i1 @ReplicationSlotName(i32 noundef %0, ptr noundef %1) local_unnamed_addr #0 {
  %3 = load ptr, ptr @ReplicationSlotCtl, align 8
  %4 = sext i32 %0 to i64
  %5 = getelementptr inbounds [1 x %struct.ReplicationSlot], ptr %3, i64 0, i64 %4
  %6 = load ptr, ptr @MainLWLockArray, align 8
  %7 = getelementptr inbounds nuw i8, ptr %6, i64 4736
  %8 = tail call zeroext i1 @LWLockAcquire(ptr noundef nonnull %7, i32 noundef 1) #17
  %9 = getelementptr inbounds nuw i8, ptr %5, i64 1
  %10 = load i8, ptr %9, align 1, !range !4, !noundef !5
  %11 = trunc nuw i8 %10 to i1
  br i1 %11, label %12, label %14

12:                                               ; preds = %2
  %13 = getelementptr inbounds nuw i8, ptr %5, i64 24
  tail call void @namestrcpy(ptr noundef %1, ptr noundef nonnull %13) #17
  br label %14

14:                                               ; preds = %12, %2
  %15 = load ptr, ptr @MainLWLockArray, align 8
  %16 = getelementptr inbounds nuw i8, ptr %15, i64 4736
  tail call void @LWLockRelease(ptr noundef nonnull %16) #17
  ret i1 %11
}